target datalayout = "e-m:e-p270:32:32-p271:32:32-p272:64:64-i64:64-i128:128-f80:128-n8:16:32:64-S128"
target triple = "x86_64-pc-linux-gnu"

%struct.PyWideStringList = type { i64, ptr }
%struct._object = type { %union.anon.41, ptr }
%union.anon.41 = type { i64 }
%struct.PyConfig = type { i32, i32, i32, i32, i32, i32, i64, i32, i32, i32, i32, i32, i32, i32, ptr, i32, ptr, ptr, ptr, i32, %struct.PyWideStringList, %struct.PyWideStringList, %struct.PyWideStringList, %struct.PyWideStringList, i32, i32, i32, i32, i32, i32, i32, i32, i32, i32, i32, i32, i32, ptr, ptr, ptr, i32, i32, i32, i32, i32, ptr, ptr, ptr, ptr, i32, %struct.PyWideStringList, ptr, ptr, ptr, ptr, ptr, ptr, ptr, i32, ptr, ptr, ptr, ptr, i32, i32, i32 }
%struct.PyCompilerFlags = type { i32, i32 }
%struct.anon.42 = type { i32, i32 }

@stdin = external global ptr, align 8
@.str.9 = private unnamed_addr constant [2 x i8] c"O\00", align 1
@.str.24 = private unnamed_addr constant [18 x i8] c"cpython.run_stdin\00", align 1
@.str.25 = private unnamed_addr constant [18 x i8] c"PYTHON_BASIC_REPL\00", align 1
@__const.pymain_run_stdin.cf = private unnamed_addr constant %struct.PyCompilerFlags { i32 0, i32 14 }, align 4
@.str.26 = private unnamed_addr constant [8 x i8] c"<stdin>\00", align 1
@.str.27 = private unnamed_addr constant [8 x i32] [i32 95, i32 112, i32 121, i32 114, i32 101, i32 112, i32 108, i32 0], align 4
@Py_InspectFlag = external global i32, align 4
@.str.28 = private unnamed_addr constant [14 x i8] c"PYTHONSTARTUP\00", align 1
@.str.29 = private unnamed_addr constant [20 x i8] c"cpython.run_startup\00", align 1
@.str.30 = private unnamed_addr constant [2 x i8] c"r\00", align 1
@.str.31 = private unnamed_addr constant [30 x i8] c"Could not open PYTHONSTARTUP\0A\00", align 1
@PyExc_OSError = external global ptr, align 8
@__const.pymain_run_startup.cf = private unnamed_addr constant %struct.PyCompilerFlags { i32 0, i32 14 }, align 4

; Function Attrs: alwaysinline nounwind uwtable
define internal i32 @_Py_IsImmortal(ptr noundef %0) #5 {
  %2 = alloca ptr, align 8
  store ptr %0, ptr %2, align 8, !tbaa !177
  %3 = load ptr, ptr %2, align 8, !tbaa !177
  %4 = getelementptr inbounds nuw %struct._object, ptr %3, i32 0, i32 0
  %5 = getelementptr inbounds nuw %struct.anon.42, ptr %4, i32 0, i32 0
  %6 = load i32, ptr %5, align 8, !tbaa !205
  %7 = icmp slt i32 %6, 0
  %8 = zext i1 %7 to i32
  ret i32 %8
}

; Function Attrs: alwaysinline nounwind uwtable
define internal void @Py_DECREF(ptr noundef %0) #5 {
  %2 = alloca ptr, align 8
  store ptr %0, ptr %2, align 8, !tbaa !177
  %3 = load ptr, ptr %2, align 8, !tbaa !177
  %4 = call i32 @_Py_IsImmortal(ptr noundef %3)
  %5 = icmp ne i32 %4, 0
  br i1 %5, label %6, label %7

6:                                                ; preds = %1
  br label %16

7:                                                ; preds = %1
  %8 = load ptr, ptr %2, align 8, !tbaa !177
  %9 = getelementptr inbounds nuw %struct._object, ptr %8, i32 0, i32 0
  %10 = getelementptr inbounds nuw %struct.anon.42, ptr %9, i32 0, i32 0
  %11 = load i32, ptr %10, align 8, !tbaa !205
  %12 = add i32 %11, -1
  store i32 %12, ptr %10, align 8, !tbaa !205
  %13 = icmp eq i32 %12, 0
  br i1 %13, label %14, label %16

14:                                               ; preds = %7
  %15 = load ptr, ptr %2, align 8, !tbaa !177
  call void @_Py_Dealloc(ptr noundef %15)
  br label %16

16:                                               ; preds = %6, %14, %7
  ret void
}

; Function Attrs: nounwind uwtable
define internal i32 @pymain_err_print(ptr noundef %0) #0 {
  %2 = alloca i32, align 4
  %3 = alloca ptr, align 8
  %4 = alloca i32, align 4
  %5 = alloca i32, align 4
  store ptr %0, ptr %3, align 8, !tbaa !176
  call void @llvm.lifetime.start.p0(i64 4, ptr %4) #13
  %6 = call i32 @_Py_HandleSystemExit(ptr noundef %4)
  %7 = icmp ne i32 %6, 0
  br i1 %7, label %8, label %11

8:                                                ; preds = %1
  %9 = load i32, ptr %4, align 4, !tbaa !4
  %10 = load ptr, ptr %3, align 8, !tbaa !176
  store i32 %9, ptr %10, align 4, !tbaa !4
  store i32 1, ptr %2, align 4
  store i32 1, ptr %5, align 4
  br label %12

11:                                               ; preds = %1
  call void @PyErr_Print()
  store i32 0, ptr %2, align 4
  store i32 1, ptr %5, align 4
  br label %12

12:                                               ; preds = %11, %8
  call void @llvm.lifetime.end.p0(i64 4, ptr %4) #13
  %13 = load i32, ptr %2, align 4
  ret i32 %13
}

; Function Attrs: inlinehint nounwind uwtable
define internal void @Py_XDECREF(ptr noundef %0) #4 {
  %2 = alloca ptr, align 8
  store ptr %0, ptr %2, align 8, !tbaa !177
  %3 = load ptr, ptr %2, align 8, !tbaa !177
  %4 = icmp ne ptr %3, null
  br i1 %4, label %5, label %7

5:                                                ; preds = %1
  %6 = load ptr, ptr %2, align 8, !tbaa !177
  call void @Py_DECREF(ptr noundef %6)
  br label %7

7:                                                ; preds = %5, %1
  ret void
}

; Function Attrs: nounwind uwtable
define internal i32 @pymain_exit_err_print() #0 {
  %1 = alloca i32, align 4
  call void @llvm.lifetime.start.p0(i64 4, ptr %1) #13
  store i32 1, ptr %1, align 4, !tbaa !4
  %2 = call i32 @pymain_err_print(ptr noundef %1)
  %3 = load i32, ptr %1, align 4, !tbaa !4
  call void @llvm.lifetime.end.p0(i64 4, ptr %1) #13
  ret i32 %3
}

; Function Attrs: nounwind uwtable
define internal i32 @pymain_run_startup(ptr noundef %0, ptr noundef %1) #0 {
  %3 = alloca i32, align 4
  %4 = alloca ptr, align 8
  %5 = alloca ptr, align 8
  %6 = alloca i32, align 4
  %7 = alloca i32, align 4
  %8 = alloca ptr, align 8
  %9 = alloca ptr, align 8
  %10 = alloca ptr, align 8
  %11 = alloca i32, align 4
  %12 = alloca %struct.PyCompilerFlags, align 4
  store ptr %0, ptr %4, align 8, !tbaa !179
  store ptr %1, ptr %5, align 8, !tbaa !176
  call void @llvm.lifetime.start.p0(i64 4, ptr %6) #13
  %13 = load ptr, ptr %4, align 8, !tbaa !179
  %14 = getelementptr inbounds nuw %struct.PyConfig, ptr %13, i32 0, i32 2
  %15 = load i32, ptr %14, align 8, !tbaa !213
  %16 = icmp ne i32 %15, 0
  br i1 %16, label %18, label %17

17:                                               ; preds = %2
  store i32 0, ptr %3, align 4
  store i32 1, ptr %7, align 4
  br label %64

18:                                               ; preds = %2
  call void @llvm.lifetime.start.p0(i64 8, ptr %8) #13
  store ptr null, ptr %8, align 8, !tbaa !177
  call void @llvm.lifetime.start.p0(i64 8, ptr %9) #13
  %19 = load ptr, ptr %4, align 8, !tbaa !179
  %20 = getelementptr inbounds nuw %struct.PyConfig, ptr %19, i32 0, i32 2
  %21 = load i32, ptr %20, align 8, !tbaa !213
  %22 = call ptr @_Py_GetEnv(i32 noundef %21, ptr noundef @.str.28)
  store ptr %22, ptr %9, align 8, !tbaa !220
  %23 = load ptr, ptr %9, align 8, !tbaa !220
  %24 = icmp eq ptr %23, null
  br i1 %24, label %25, label %26

25:                                               ; preds = %18
  store i32 0, ptr %3, align 4
  store i32 1, ptr %7, align 4
  br label %63

26:                                               ; preds = %18
  %27 = load ptr, ptr %9, align 8, !tbaa !220
  %28 = call ptr @PyUnicode_DecodeFSDefault(ptr noundef %27)
  store ptr %28, ptr %8, align 8, !tbaa !177
  %29 = load ptr, ptr %8, align 8, !tbaa !177
  %30 = icmp eq ptr %29, null
  br i1 %30, label %31, label %32

31:                                               ; preds = %26
  br label %60

32:                                               ; preds = %26
  %33 = load ptr, ptr %8, align 8, !tbaa !177
  %34 = call i32 (ptr, ptr, ...) @PySys_Audit(ptr noundef @.str.29, ptr noundef @.str.9, ptr noundef %33)
  %35 = icmp slt i32 %34, 0
  br i1 %35, label %36, label %37

36:                                               ; preds = %32
  br label %60

37:                                               ; preds = %32
  %38 = load ptr, ptr %8, align 8, !tbaa !177
  %39 = call ptr @Py_fopen(ptr noundef %38, ptr noundef @.str.30)
  store ptr %39, ptr %10, align 8, !tbaa !204
  %40 = load ptr, ptr %10, align 8, !tbaa !204
  %41 = icmp eq ptr %40, null
  br i1 %41, label %42, label %51

42:                                               ; preds = %37
  call void @llvm.lifetime.start.p0(i64 4, ptr %11) #13
  %43 = call ptr @__errno_location() #16
  %44 = load i32, ptr %43, align 4, !tbaa !4
  store i32 %44, ptr %11, align 4, !tbaa !4
  call void @PyErr_Clear()
  call void (ptr, ...) @PySys_WriteStderr(ptr noundef @.str.31)
  %45 = load i32, ptr %11, align 4, !tbaa !4
  %46 = call ptr @__errno_location() #16
  store i32 %45, ptr %46, align 4, !tbaa !4
  %47 = load ptr, ptr @PyExc_OSError, align 8, !tbaa !177
  %48 = load ptr, ptr %8, align 8, !tbaa !177
  %49 = call ptr @PyErr_SetFromErrnoWithFilenameObjects(ptr noundef %47, ptr noundef %48, ptr noundef null)
  store i32 2, ptr %7, align 4
  call void @llvm.lifetime.end.p0(i64 4, ptr %11) #13
  %50 = load i32, ptr %7, align 4
  switch i32 %50, label %63 [
    i32 2, label %60
  ]

51:                                               ; preds = %37
  call void @llvm.memcpy.p0.p0.i64(ptr align 4 %12, ptr align 4 @__const.pymain_run_startup.cf, i64 8, i1 false)
  %52 = load ptr, ptr %10, align 8, !tbaa !204
  %53 = load ptr, ptr %8, align 8, !tbaa !177
  %54 = call i32 @_PyRun_SimpleFileObject(ptr noundef %52, ptr noundef %53, i32 noundef 0, ptr noundef %12)
  call void @PyErr_Clear()
  %55 = load ptr, ptr %10, align 8, !tbaa !204
  %56 = call i32 @fclose(ptr noundef %55)
  store i32 0, ptr %6, align 4, !tbaa !4
  br label %57

57:                                               ; preds = %60, %51
  %58 = load ptr, ptr %8, align 8, !tbaa !177
  call void @Py_XDECREF(ptr noundef %58)
  %59 = load i32, ptr %6, align 4, !tbaa !4
  store i32 %59, ptr %3, align 4
  store i32 1, ptr %7, align 4
  br label %63

60:                                               ; preds = %42, %36, %31
  %61 = load ptr, ptr %5, align 8, !tbaa !176
  %62 = call i32 @pymain_err_print(ptr noundef %61)
  store i32 %62, ptr %6, align 4, !tbaa !4
  br label %57

63:                                               ; preds = %42, %57, %25
  call void @llvm.lifetime.end.p0(i64 8, ptr %9) #13
  call void @llvm.lifetime.end.p0(i64 8, ptr %8) #13
  br label %64

64:                                               ; preds = %63, %17
  call void @llvm.lifetime.end.p0(i64 4, ptr %6) #13
  %65 = load i32, ptr %3, align 4
  ret i32 %65
}

; Function Attrs: nounwind uwtable
define internal void @pymain_set_inspect(ptr noundef %0, i32 noundef %1) #0 {
  %3 = alloca ptr, align 8
  %4 = alloca i32, align 4
  store ptr %0, ptr %3, align 8, !tbaa !179
  store i32 %1, ptr %4, align 4, !tbaa !4
  %5 = load i32, ptr %4, align 4, !tbaa !4
  %6 = load ptr, ptr %3, align 8, !tbaa !179
  %7 = getelementptr inbounds nuw %struct.PyConfig, ptr %6, i32 0, i32 27
  store i32 %5, ptr %7, align 4, !tbaa !203
  %8 = load i32, ptr %4, align 4, !tbaa !4
  store i32 %8, ptr @Py_InspectFlag, align 4, !tbaa !4
  ret void
}

; Function Attrs: nounwind uwtable
define internal i32 @stdin_is_interactive(ptr noundef %0) #0 {
  %2 = alloca ptr, align 8
  store ptr %0, ptr %2, align 8, !tbaa !179
  %3 = load ptr, ptr @stdin, align 8, !tbaa !204
  %4 = call i32 @fileno(ptr noundef %3) #13
  %5 = call i32 @isatty(i32 noundef %4) #13
  %6 = icmp ne i32 %5, 0
  br i1 %6, label %12, label %7

7:                                                ; preds = %1
  %8 = load ptr, ptr %2, align 8, !tbaa !179
  %9 = getelementptr inbounds nuw %struct.PyConfig, ptr %8, i32 0, i32 28
  %10 = load i32, ptr %9, align 8, !tbaa !214
  %11 = icmp ne i32 %10, 0
  br label %12

12:                                               ; preds = %7, %1
  %13 = phi i1 [ true, %1 ], [ %11, %7 ]
  %14 = zext i1 %13 to i32
  ret i32 %14
}

; Function Attrs: nounwind uwtable
define internal i32 @pymain_run_stdin(ptr noundef %0) #0 {
  %2 = alloca i32, align 4
  %3 = alloca ptr, align 8
  %4 = alloca i32, align 4
  %5 = alloca i32, align 4
  %6 = alloca %struct.PyCompilerFlags, align 4
  %7 = alloca i32, align 4
  %8 = alloca i32, align 4
  store ptr %0, ptr %3, align 8, !tbaa !179
  %9 = load ptr, ptr %3, align 8, !tbaa !179
  %10 = call i32 @stdin_is_interactive(ptr noundef %9)
  %11 = icmp ne i32 %10, 0
  br i1 %11, label %12, label %28

12:                                               ; preds = %1
  %13 = load ptr, ptr %3, align 8, !tbaa !179
  call void @pymain_set_inspect(ptr noundef %13, i32 noundef 0)
  call void @llvm.lifetime.start.p0(i64 4, ptr %4) #13
  %14 = load ptr, ptr %3, align 8, !tbaa !179
  %15 = call i32 @pymain_run_startup(ptr noundef %14, ptr noundef %4)
  %16 = icmp ne i32 %15, 0
  br i1 %16, label %17, label %19

17:                                               ; preds = %12
  %18 = load i32, ptr %4, align 4, !tbaa !4
  store i32 %18, ptr %2, align 4
  store i32 1, ptr %5, align 4
  br label %25

19:                                               ; preds = %12
  %20 = call i32 @pymain_run_interactive_hook(ptr noundef %4)
  %21 = icmp ne i32 %20, 0
  br i1 %21, label %22, label %24

22:                                               ; preds = %19
  %23 = load i32, ptr %4, align 4, !tbaa !4
  store i32 %23, ptr %2, align 4
  store i32 1, ptr %5, align 4
  br label %25

24:                                               ; preds = %19
  store i32 0, ptr %5, align 4
  br label %25

25:                                               ; preds = %24, %22, %17
  call void @llvm.lifetime.end.p0(i64 4, ptr %4) #13
  %26 = load i32, ptr %5, align 4
  switch i32 %26, label %62 [
    i32 0, label %27
    i32 1, label %60
  ]

27:                                               ; preds = %25
  br label %28

28:                                               ; preds = %27, %1
  %29 = call i32 @Py_MakePendingCalls()
  %30 = icmp eq i32 %29, -1
  br i1 %30, label %31, label %33

31:                                               ; preds = %28
  %32 = call i32 @pymain_exit_err_print()
  store i32 %32, ptr %2, align 4
  br label %60

33:                                               ; preds = %28
  %34 = call i32 (ptr, ptr, ...) @PySys_Audit(ptr noundef @.str.24, ptr noundef null)
  %35 = icmp slt i32 %34, 0
  br i1 %35, label %36, label %38

36:                                               ; preds = %33
  %37 = call i32 @pymain_exit_err_print()
  store i32 %37, ptr %2, align 4
  br label %60

38:                                               ; preds = %33
  %39 = load ptr, ptr @stdin, align 8, !tbaa !204
  %40 = call i32 @fileno(ptr noundef %39) #13
  %41 = call i32 @isatty(i32 noundef %40) #13
  %42 = icmp ne i32 %41, 0
  br i1 %42, label %43, label %49

43:                                               ; preds = %38
  %44 = load ptr, ptr %3, align 8, !tbaa !179
  %45 = getelementptr inbounds nuw %struct.PyConfig, ptr %44, i32 0, i32 2
  %46 = load i32, ptr %45, align 8, !tbaa !213
  %47 = call ptr @_Py_GetEnv(i32 noundef %46, ptr noundef @.str.25)
  %48 = icmp ne ptr %47, null
  br i1 %48, label %49, label %55

49:                                               ; preds = %43, %38
  call void @llvm.lifetime.start.p0(i64 8, ptr %6) #13
  call void @llvm.memcpy.p0.p0.i64(ptr align 4 %6, ptr align 4 @__const.pymain_run_stdin.cf, i64 8, i1 false)
  call void @llvm.lifetime.start.p0(i64 4, ptr %7) #13
  %50 = load ptr, ptr @stdin, align 8, !tbaa !204
  %51 = call i32 @PyRun_AnyFileExFlags(ptr noundef %50, ptr noundef @.str.26, i32 noundef 0, ptr noundef %6)
  store i32 %51, ptr %7, align 4, !tbaa !4
  %52 = load i32, ptr %7, align 4, !tbaa !4
  %53 = icmp ne i32 %52, 0
  %54 = zext i1 %53 to i32
  store i32 %54, ptr %2, align 4
  store i32 1, ptr %5, align 4
  call void @llvm.lifetime.end.p0(i64 4, ptr %7) #13
  call void @llvm.lifetime.end.p0(i64 8, ptr %6) #13
  br label %60

55:                                               ; preds = %43
  call void @llvm.lifetime.start.p0(i64 4, ptr %8) #13
  %56 = call i32 @pymain_run_module(ptr noundef @.str.27, i32 noundef 0)
  store i32 %56, ptr %8, align 4, !tbaa !4
  %57 = load i32, ptr %8, align 4, !tbaa !4
  %58 = icmp ne i32 %57, 0
  %59 = zext i1 %58 to i32
  store i32 %59, ptr %2, align 4
  store i32 1, ptr %5, align 4
  call void @llvm.lifetime.end.p0(i64 4, ptr %8) #13
  br label %60

60:                                               ; preds = %55, %49, %36, %31, %25
  %61 = load i32, ptr %2, align 4
  ret i32 %61

62:                                               ; preds = %25
  unreachable
}