; Function Attrs: nounwind uwtable
define internal fastcc i32 @pymain_run_stdin(ptr noundef captures(none) %0) unnamed_addr #0 {
  %2 = alloca i32, align 4
  %3 = alloca i32, align 4
  %4 = alloca i32, align 4
  %5 = alloca %struct.PyCompilerFlags, align 8
  %6 = alloca i32, align 4
  %7 = alloca %struct.PyCompilerFlags, align 8
  %8 = load ptr, ptr @stdin, align 8, !tbaa !35
  %9 = tail call i32 @fileno(ptr noundef %8) #14
  %10 = tail call i32 @isatty(i32 noundef %9) #14
  %.not.i = icmp eq i32 %10, 0
  br i1 %.not.i, label %stdin_is_interactive.exit, label %stdin_is_interactive.exit.thread

stdin_is_interactive.exit:                        ; preds = %1
  %11 = getelementptr inbounds nuw i8, ptr %0, i64 192
  %12 = load i32, ptr %11, align 8, !tbaa !109
  %.not26 = icmp eq i32 %12, 0
  br i1 %.not26, label %51, label %stdin_is_interactive.exit.thread

stdin_is_interactive.exit.thread:                 ; preds = %1, %stdin_is_interactive.exit
  %13 = getelementptr inbounds nuw i8, ptr %0, i64 188
  store i32 0, ptr %13, align 4, !tbaa !32
  store i32 0, ptr @Py_InspectFlag, align 4, !tbaa !4
  call void @llvm.lifetime.start.p0(i64 4, ptr nonnull %6) #14
  %14 = getelementptr i8, ptr %0, i64 8
  %.val = load i32, ptr %14, align 8, !tbaa !111
  call void @llvm.lifetime.start.p0(i64 8, ptr nonnull %5)
  %.not.i13 = icmp eq i32 %.val, 0
  br i1 %.not.i13, label %pymain_run_startup.exit.thread, label %15

15:                                               ; preds = %stdin_is_interactive.exit.thread
  %16 = tail call ptr @_Py_GetEnv(i32 noundef %.val, ptr noundef nonnull @.str.28) #14
  %17 = icmp eq ptr %16, null
  br i1 %17, label %pymain_run_startup.exit.thread, label %18

18:                                               ; preds = %15
  %19 = tail call ptr @PyUnicode_DecodeFSDefault(ptr noundef nonnull %16) #14
  %20 = icmp eq ptr %19, null
  br i1 %20, label %.split19.i, label %21

21:                                               ; preds = %18
  %22 = tail call i32 (ptr, ptr, ...) @PySys_Audit(ptr noundef nonnull @.str.29, ptr noundef nonnull @.str.9, ptr noundef nonnull %19) #14
  %23 = icmp slt i32 %22, 0
  br i1 %23, label %.split19.i, label %24

24:                                               ; preds = %21
  %25 = tail call ptr @Py_fopen(ptr noundef nonnull %19, ptr noundef nonnull @.str.30) #14
  %26 = icmp eq ptr %25, null
  br i1 %26, label %27, label %32

27:                                               ; preds = %24
  %28 = tail call ptr @__errno_location() #19
  %29 = load i32, ptr %28, align 4, !tbaa !4
  tail call void @PyErr_Clear() #14
  tail call void (ptr, ...) @PySys_WriteStderr(ptr noundef nonnull @.str.31) #14
  store i32 %29, ptr %28, align 4, !tbaa !4
  %30 = load ptr, ptr @PyExc_OSError, align 8, !tbaa !37
  %31 = tail call ptr @PyErr_SetFromErrnoWithFilenameObjects(ptr noundef %30, ptr noundef nonnull %19, ptr noundef null) #14
  br label %.split19.i

32:                                               ; preds = %24
  store i64 60129542144, ptr %5, align 8
  %33 = call i32 @_PyRun_SimpleFileObject(ptr noundef nonnull %25, ptr noundef nonnull %19, i32 noundef 0, ptr noundef nonnull %5) #14
  call void @PyErr_Clear() #14
  %34 = call i32 @fclose(ptr noundef nonnull %25)
  %35 = load i32, ptr %19, align 8, !tbaa !30
  %.not.i.i.i = icmp sgt i32 %35, -1
  br i1 %.not.i.i.i, label %36, label %pymain_run_startup.exit.thread

36:                                               ; preds = %32
  %37 = add nsw i32 %35, -1
  store i32 %37, ptr %19, align 8, !tbaa !30
  %38 = icmp eq i32 %37, 0
  br i1 %38, label %Py_XDECREF.exit.sink.split.i, label %pymain_run_startup.exit.thread

.split19.i:                                       ; preds = %27, %21, %18
  call void @llvm.lifetime.start.p0(i64 4, ptr nonnull %4) #14
  %39 = call i32 @_Py_HandleSystemExit(ptr noundef nonnull %4) #14
  %.not.i24.i = icmp eq i32 %39, 0
  br i1 %.not.i24.i, label %42, label %40

40:                                               ; preds = %.split19.i
  %41 = load i32, ptr %4, align 4, !tbaa !4
  store i32 %41, ptr %6, align 4, !tbaa !4
  br label %pymain_err_print.exit.i

42:                                               ; preds = %.split19.i
  call void @PyErr_Print() #14
  br label %pymain_err_print.exit.i

pymain_err_print.exit.i:                          ; preds = %42, %40
  %.0.ph30 = phi i32 [ %41, %40 ], [ undef, %42 ]
  %.0.i.i = phi i32 [ 1, %40 ], [ 0, %42 ]
  call void @llvm.lifetime.end.p0(i64 4, ptr nonnull %4) #14
  br i1 %20, label %pymain_run_startup.exit, label %43

43:                                               ; preds = %pymain_err_print.exit.i
  %44 = load i32, ptr %19, align 8, !tbaa !30
  %.not.i.i26.i = icmp sgt i32 %44, -1
  br i1 %.not.i.i26.i, label %45, label %pymain_run_startup.exit

45:                                               ; preds = %43
  %46 = add nsw i32 %44, -1
  store i32 %46, ptr %19, align 8, !tbaa !30
  %47 = icmp eq i32 %46, 0
  br i1 %47, label %Py_XDECREF.exit.sink.split.i, label %pymain_run_startup.exit

Py_XDECREF.exit.sink.split.i:                     ; preds = %45, %36
  %.0.ph29 = phi i32 [ undef, %36 ], [ %.0.ph30, %45 ]
  %.0.ph.i = phi i32 [ 0, %36 ], [ %.0.i.i, %45 ]
  call void @_Py_Dealloc(ptr noundef nonnull %19) #14
  br label %pymain_run_startup.exit

pymain_run_startup.exit.thread:                   ; preds = %stdin_is_interactive.exit.thread, %15, %32, %36
  call void @llvm.lifetime.end.p0(i64 8, ptr nonnull %5)
  br label %48

pymain_run_startup.exit:                          ; preds = %pymain_err_print.exit.i, %43, %45, %Py_XDECREF.exit.sink.split.i
  %.0.ph28 = phi i32 [ %.0.ph30, %pymain_err_print.exit.i ], [ %.0.ph30, %43 ], [ %.0.ph30, %45 ], [ %.0.ph29, %Py_XDECREF.exit.sink.split.i ]
  %.0.i = phi i32 [ %.0.i.i, %pymain_err_print.exit.i ], [ %.0.i.i, %43 ], [ %.0.i.i, %45 ], [ %.0.ph.i, %Py_XDECREF.exit.sink.split.i ]
  call void @llvm.lifetime.end.p0(i64 8, ptr nonnull %5)
  %.not8 = icmp eq i32 %.0.i, 0
  br i1 %.not8, label %48, label %.thread

48:                                               ; preds = %pymain_run_startup.exit.thread, %pymain_run_startup.exit
  %49 = call fastcc i32 @pymain_run_interactive_hook(ptr noundef %6)
  %.not9 = icmp eq i32 %49, 0
  br i1 %.not9, label %50, label %..thread_crit_edge

..thread_crit_edge:                               ; preds = %48
  %.0.ph.pre = load i32, ptr %6, align 4
  br label %.thread

.thread:                                          ; preds = %..thread_crit_edge, %pymain_run_startup.exit
  %.0.ph = phi i32 [ %.0.ph.pre, %..thread_crit_edge ], [ %.0.ph28, %pymain_run_startup.exit ]
  call void @llvm.lifetime.end.p0(i64 4, ptr nonnull %6) #14
  br label %84

50:                                               ; preds = %48
  call void @llvm.lifetime.end.p0(i64 4, ptr nonnull %6) #14
  br label %51

51:                                               ; preds = %50, %stdin_is_interactive.exit
  %52 = call i32 @Py_MakePendingCalls() #14
  %53 = icmp eq i32 %52, -1
  br i1 %53, label %54, label %59

54:                                               ; preds = %51
  call void @llvm.lifetime.start.p0(i64 4, ptr nonnull %3) #14
  %55 = call i32 @_Py_HandleSystemExit(ptr noundef nonnull %3) #14
  %.not.i.i = icmp eq i32 %55, 0
  br i1 %.not.i.i, label %58, label %56

56:                                               ; preds = %54
  %57 = load i32, ptr %3, align 4, !tbaa !4
  br label %pymain_exit_err_print.exit

58:                                               ; preds = %54
  call void @PyErr_Print() #14
  br label %pymain_exit_err_print.exit

pymain_exit_err_print.exit:                       ; preds = %56, %58
  %.0.i15 = phi i32 [ 1, %58 ], [ %57, %56 ]
  call void @llvm.lifetime.end.p0(i64 4, ptr nonnull %3) #14
  br label %84

59:                                               ; preds = %51
  %60 = call i32 (ptr, ptr, ...) @PySys_Audit(ptr noundef nonnull @.str.24, ptr noundef null) #14
  %61 = icmp slt i32 %60, 0
  br i1 %61, label %62, label %67

62:                                               ; preds = %59
  call void @llvm.lifetime.start.p0(i64 4, ptr nonnull %2) #14
  %63 = call i32 @_Py_HandleSystemExit(ptr noundef nonnull %2) #14
  %.not.i.i16 = icmp eq i32 %63, 0
  br i1 %.not.i.i16, label %66, label %64

64:                                               ; preds = %62
  %65 = load i32, ptr %2, align 4, !tbaa !4
  br label %pymain_exit_err_print.exit19

66:                                               ; preds = %62
  call void @PyErr_Print() #14
  br label %pymain_exit_err_print.exit19

pymain_exit_err_print.exit19:                     ; preds = %64, %66
  %.0.i18 = phi i32 [ 1, %66 ], [ %65, %64 ]
  call void @llvm.lifetime.end.p0(i64 4, ptr nonnull %2) #14
  br label %84

67:                                               ; preds = %59
  %68 = load ptr, ptr @stdin, align 8, !tbaa !35
  %69 = call i32 @fileno(ptr noundef %68) #14
  %70 = call i32 @isatty(i32 noundef %69) #14
  %.not10 = icmp eq i32 %70, 0
  br i1 %.not10, label %75, label %71

71:                                               ; preds = %67
  %72 = getelementptr inbounds nuw i8, ptr %0, i64 8
  %73 = load i32, ptr %72, align 8, !tbaa !111
  %74 = call ptr @_Py_GetEnv(i32 noundef %73, ptr noundef nonnull @.str.25) #14
  %.not11 = icmp eq ptr %74, null
  br i1 %.not11, label %80, label %75

75:                                               ; preds = %71, %67
  call void @llvm.lifetime.start.p0(i64 8, ptr nonnull %7) #14
  store i64 60129542144, ptr %7, align 8
  %76 = load ptr, ptr @stdin, align 8, !tbaa !35
  %77 = call i32 @PyRun_AnyFileExFlags(ptr noundef %76, ptr noundef nonnull @.str.26, i32 noundef 0, ptr noundef nonnull %7) #14
  %78 = icmp ne i32 %77, 0
  %79 = zext i1 %78 to i32
  call void @llvm.lifetime.end.p0(i64 8, ptr nonnull %7) #14
  br label %84

80:                                               ; preds = %71
  %81 = call fastcc i32 @pymain_run_module(ptr noundef nonnull @.str.27, i32 noundef 0)
  %82 = icmp ne i32 %81, 0
  %83 = zext i1 %82 to i32
  br label %84

84:                                               ; preds = %.thread, %80, %75, %pymain_exit_err_print.exit19, %pymain_exit_err_print.exit
  %.1 = phi i32 [ %.0.i15, %pymain_exit_err_print.exit ], [ %.0.i18, %pymain_exit_err_print.exit19 ], [ %79, %75 ], [ %83, %80 ], [ %.0.ph, %.thread ]
  ret i32 %.1
}